; ModuleID = '23/916.c'
source_filename = "23/916.c"
target datalayout = "e-m:e-p270:32:32-p271:32:32-p272:64:64-i64:64-f80:128-n8:16:32:64-S128"
target triple = "x86_64-pc-linux-gnu"

@.str = private unnamed_addr constant [3 x i8] c"%c\00", align 1
@.str.1 = private unnamed_addr constant [2 x i8] c" \00", align 1

; Function Attrs: noinline nounwind uwtable
define dso_local void @main() #0 {
  %1 = alloca i32, align 4
  %2 = alloca i32, align 4
  %3 = alloca i32, align 4
  %4 = alloca i32, align 4
  %5 = alloca [199 x i8], align 16
  %6 = alloca [100 x i8], align 16
  store i32 0, i32* %3, align 4
  %7 = getelementptr inbounds [199 x i8], [199 x i8]* %5, i64 0, i64 0
  %8 = call i32 (i8*, ...) bitcast (i32 (...)* @gets to i32 (i8*, ...)*)(i8* %7)
  %9 = getelementptr inbounds [199 x i8], [199 x i8]* %5, i64 0, i64 0
  %10 = call i64 @strlen(i8* %9) #3
  %11 = trunc i64 %10 to i32
  store i32 %11, i32* %2, align 4
  store i32 1, i32* %1, align 4
  br label %12

12:                                               ; preds = %109, %0
  %13 = load i32, i32* %1, align 4
  %14 = load i32, i32* %2, align 4
  %15 = icmp sle i32 %13, %14
  br i1 %15, label %16, label %112

16:                                               ; preds = %12
  %17 = load i32, i32* %2, align 4
  %18 = load i32, i32* %1, align 4
  %19 = sub nsw i32 %17, %18
  %20 = sext i32 %19 to i64
  %21 = getelementptr inbounds [199 x i8], [199 x i8]* %5, i64 0, i64 %20
  %22 = load i8, i8* %21, align 1
  %23 = sext i8 %22 to i32
  %24 = icmp ne i32 %23, 32
  br i1 %24, label %25, label %41

25:                                               ; preds = %16
  %26 = load i32, i32* %1, align 4
  %27 = load i32, i32* %2, align 4
  %28 = icmp ne i32 %26, %27
  br i1 %28, label %29, label %41

29:                                               ; preds = %25
  %30 = load i32, i32* %2, align 4
  %31 = load i32, i32* %1, align 4
  %32 = sub nsw i32 %30, %31
  %33 = sext i32 %32 to i64
  %34 = getelementptr inbounds [199 x i8], [199 x i8]* %5, i64 0, i64 %33
  %35 = load i8, i8* %34, align 1
  %36 = load i32, i32* %3, align 4
  %37 = sext i32 %36 to i64
  %38 = getelementptr inbounds [100 x i8], [100 x i8]* %6, i64 0, i64 %37
  store i8 %35, i8* %38, align 1
  %39 = load i32, i32* %3, align 4
  %40 = add nsw i32 %39, 1
  store i32 %40, i32* %3, align 4
  br label %108

41:                                               ; preds = %25, %16
  %42 = load i32, i32* %1, align 4
  %43 = load i32, i32* %2, align 4
  %44 = icmp ne i32 %42, %43
  br i1 %44, label %45, label %71

45:                                               ; preds = %41
  store i32 0, i32* %4, align 4
  br label %46

46:                                               ; preds = %66, %45
  %47 = load i32, i32* %4, align 4
  %48 = load i32, i32* %3, align 4
  %49 = icmp slt i32 %47, %48
  br i1 %49, label %50, label %69

50:                                               ; preds = %46
  %51 = load i32, i32* %3, align 4
  %52 = sub nsw i32 %51, 1
  %53 = load i32, i32* %4, align 4
  %54 = sub nsw i32 %52, %53
  %55 = sext i32 %54 to i64
  %56 = getelementptr inbounds [100 x i8], [100 x i8]* %6, i64 0, i64 %55
  %57 = load i8, i8* %56, align 1
  %58 = sext i8 %57 to i32
  %59 = call i32 (i8*, ...) @printf(i8* getelementptr inbounds ([3 x i8], [3 x i8]* @.str, i64 0, i64 0), i32 %58)
  %60 = load i32, i32* %3, align 4
  %61 = sub nsw i32 %60, 1
  %62 = load i32, i32* %4, align 4
  %63 = sub nsw i32 %61, %62
  %64 = sext i32 %63 to i64
  %65 = getelementptr inbounds [100 x i8], [100 x i8]* %6, i64 0, i64 %64
  store i8 0, i8* %65, align 1
  br label %66

66:                                               ; preds = %50
  %67 = load i32, i32* %4, align 4
  %68 = add nsw i32 %67, 1
  store i32 %68, i32* %4, align 4
  br label %46

69:                                               ; preds = %46
  store i32 0, i32* %3, align 4
  %70 = call i32 (i8*, ...) @printf(i8* getelementptr inbounds ([2 x i8], [2 x i8]* @.str.1, i64 0, i64 0))
  br label %107

71:                                               ; preds = %41
  %72 = load i32, i32* %2, align 4
  %73 = load i32, i32* %1, align 4
  %74 = sub nsw i32 %72, %73
  %75 = sext i32 %74 to i64
  %76 = getelementptr inbounds [199 x i8], [199 x i8]* %5, i64 0, i64 %75
  %77 = load i8, i8* %76, align 1
  %78 = load i32, i32* %3, align 4
  %79 = sext i32 %78 to i64
  %80 = getelementptr inbounds [100 x i8], [100 x i8]* %6, i64 0, i64 %79
  store i8 %77, i8* %80, align 1
  %81 = load i32, i32* %3, align 4
  %82 = add nsw i32 %81, 1
  store i32 %82, i32* %3, align 4
  store i32 0, i32* %4, align 4
  br label %83

83:                                               ; preds = %103, %71
  %84 = load i32, i32* %4, align 4
  %85 = load i32, i32* %3, align 4
  %86 = icmp slt i32 %84, %85
  br i1 %86, label %87, label %106

87:                                               ; preds = %83
  %88 = load i32, i32* %3, align 4
  %89 = sub nsw i32 %88, 1
  %90 = load i32, i32* %4, align 4
  %91 = sub nsw i32 %89, %90
  %92 = sext i32 %91 to i64
  %93 = getelementptr inbounds [100 x i8], [100 x i8]* %6, i64 0, i64 %92
  %94 = load i8, i8* %93, align 1
  %95 = sext i8 %94 to i32
  %96 = call i32 (i8*, ...) @printf(i8* getelementptr inbounds ([3 x i8], [3 x i8]* @.str, i64 0, i64 0), i32 %95)
  %97 = load i32, i32* %3, align 4
  %98 = sub nsw i32 %97, 1
  %99 = load i32, i32* %4, align 4
  %100 = sub nsw i32 %98, %99
  %101 = sext i32 %100 to i64
  %102 = getelementptr inbounds [100 x i8], [100 x i8]* %6, i64 0, i64 %101
  store i8 0, i8* %102, align 1
  br label %103

103:                                              ; preds = %87
  %104 = load i32, i32* %4, align 4
  %105 = add nsw i32 %104, 1
  store i32 %105, i32* %4, align 4
  br label %83

106:                                              ; preds = %83
  br label %107

107:                                              ; preds = %106, %69
  br label %108

108:                                              ; preds = %107, %29
  br label %109

109:                                              ; preds = %108
  %110 = load i32, i32* %1, align 4
  %111 = add nsw i32 %110, 1
  store i32 %111, i32* %1, align 4
  br label %12

112:                                              ; preds = %12
  ret void
}

declare dso_local i32 @gets(...) #1

; Function Attrs: nounwind readonly
declare dso_local i64 @strlen(i8*) #2

declare dso_local i32 @printf(i8*, ...) #1


!llvm.module.flags = !{!0}
!llvm.ident = !{!1}

!0 = !{i32 1, !"wchar_size", i32 4}
!1 = !{!"clang version 10.0.0-4ubuntu1 "}
